target datalayout = "e-m:e-p270:32:32-p271:32:32-p272:64:64-i64:64-i128:128-f80:128-n8:16:32:64-S128"
target triple = "x86_64-pc-linux-gnu"

%struct.dcm_uid = type { ptr, ptr, ptr }
%struct.dcm_tag = type { i32, ptr, ptr, ptr, i8, i8 }
%struct.dcm_status = type { i16, ptr }

@dcm_tag_table = internal global ptr null, align 8
@dcm_uid_table = internal global ptr null, align 8
@dcm_status_table = internal global ptr null, align 8

; Function Attrs: null_pointer_is_valid sspstrong uwtable
define internal void @dcm_init() #0 {
  %1 = alloca i32, align 4
  call void @llvm.lifetime.start.p0(i64 4, ptr %1) #14
  %2 = call ptr @wmem_file_scope()
  %3 = call noalias ptr @wmem_map_new(ptr noundef %2, ptr noundef @wmem_str_hash, ptr noundef @g_str_equal)
  store ptr %3, ptr @dcm_uid_table, align 8
  store i32 0, ptr %1, align 4
  br label %4

4:                                                ; preds = %19, %0
  %5 = load i32, ptr %1, align 4
  %6 = zext i32 %5 to i64
  %7 = icmp ult i64 %6, 482
  br i1 %7, label %8, label %22

8:                                                ; preds = %4
  %9 = load ptr, ptr @dcm_uid_table, align 8
  %10 = load i32, ptr %1, align 4
  %11 = zext i32 %10 to i64
  %12 = getelementptr [482 x %struct.dcm_uid], ptr @dcm_uid_data, i64 0, i64 %11
  %13 = getelementptr inbounds nuw %struct.dcm_uid, ptr %12, i32 0, i32 0
  %14 = load ptr, ptr %13, align 8
  %15 = load i32, ptr %1, align 4
  %16 = zext i32 %15 to i64
  %17 = getelementptr [482 x %struct.dcm_uid], ptr @dcm_uid_data, i64 0, i64 %16
  %18 = call ptr @wmem_map_insert(ptr noundef %9, ptr noundef %14, ptr noundef %17)
  br label %19

19:                                               ; preds = %8
  %20 = load i32, ptr %1, align 4
  %21 = add i32 %20, 1
  store i32 %21, ptr %1, align 4
  br label %4, !llvm.loop !6

22:                                               ; preds = %4
  %23 = call ptr @wmem_file_scope()
  %24 = call noalias ptr @wmem_map_new(ptr noundef %23, ptr noundef @g_direct_hash, ptr noundef @g_direct_equal)
  store ptr %24, ptr @dcm_tag_table, align 8
  store i32 0, ptr %1, align 4
  br label %25

25:                                               ; preds = %42, %22
  %26 = load i32, ptr %1, align 4
  %27 = zext i32 %26 to i64
  %28 = icmp ult i64 %27, 5179
  br i1 %28, label %29, label %45

29:                                               ; preds = %25
  %30 = load ptr, ptr @dcm_tag_table, align 8
  %31 = load i32, ptr %1, align 4
  %32 = zext i32 %31 to i64
  %33 = getelementptr [5179 x %struct.dcm_tag], ptr @dcm_tag_data, i64 0, i64 %32
  %34 = getelementptr inbounds nuw %struct.dcm_tag, ptr %33, i32 0, i32 0
  %35 = load i32, ptr %34, align 8
  %36 = zext i32 %35 to i64
  %37 = inttoptr i64 %36 to ptr
  %38 = load i32, ptr %1, align 4
  %39 = zext i32 %38 to i64
  %40 = getelementptr [5179 x %struct.dcm_tag], ptr @dcm_tag_data, i64 0, i64 %39
  %41 = call ptr @wmem_map_insert(ptr noundef %30, ptr noundef %37, ptr noundef %40)
  br label %42

42:                                               ; preds = %29
  %43 = load i32, ptr %1, align 4
  %44 = add i32 %43, 1
  store i32 %44, ptr %1, align 4
  br label %25, !llvm.loop !8

45:                                               ; preds = %25
  %46 = call ptr @wmem_file_scope()
  %47 = call noalias ptr @wmem_map_new(ptr noundef %46, ptr noundef @g_direct_hash, ptr noundef @g_direct_equal)
  store ptr %47, ptr @dcm_status_table, align 8
  store i32 0, ptr %1, align 4
  br label %48

48:                                               ; preds = %66, %45
  %49 = load i32, ptr %1, align 4
  %50 = zext i32 %49 to i64
  %51 = icmp ult i64 %50, 53
  br i1 %51, label %52, label %69

52:                                               ; preds = %48
  %53 = load ptr, ptr @dcm_status_table, align 8
  %54 = load i32, ptr %1, align 4
  %55 = zext i32 %54 to i64
  %56 = getelementptr [53 x %struct.dcm_status], ptr @dcm_status_data, i64 0, i64 %55
  %57 = getelementptr inbounds nuw %struct.dcm_status, ptr %56, i32 0, i32 0
  %58 = load i16, ptr %57, align 16
  %59 = zext i16 %58 to i32
  %60 = zext i32 %59 to i64
  %61 = inttoptr i64 %60 to ptr
  %62 = load i32, ptr %1, align 4
  %63 = zext i32 %62 to i64
  %64 = getelementptr [53 x %struct.dcm_status], ptr @dcm_status_data, i64 0, i64 %63
  %65 = call ptr @wmem_map_insert(ptr noundef %53, ptr noundef %61, ptr noundef %64)
  br label %66

66:                                               ; preds = %52
  %67 = load i32, ptr %1, align 4
  %68 = add i32 %67, 1
  store i32 %68, ptr %1, align 4
  br label %48, !llvm.loop !9

69:                                               ; preds = %48
  call void @llvm.lifetime.end.p0(i64 4, ptr %1) #14
  ret void
}