; Function Attrs: null_pointer_is_valid sspstrong uwtable
define internal void @dcm_init() #0 {
  %1 = tail call ptr @wmem_file_scope()
  %2 = tail call noalias ptr @wmem_map_new(ptr noundef %1, ptr noundef nonnull @wmem_str_hash, ptr noundef nonnull @g_str_equal)
  store ptr %2, ptr @dcm_uid_table, align 8
  br label %3

3:                                                ; preds = %0, %3
  %indvars.iv = phi i64 [ 0, %0 ], [ %indvars.iv.next, %3 ]
  %4 = load ptr, ptr @dcm_uid_table, align 8
  %5 = getelementptr [482 x %struct.dcm_uid], ptr @dcm_uid_data, i64 0, i64 %indvars.iv
  %6 = load ptr, ptr %5, align 8
  %7 = tail call ptr @wmem_map_insert(ptr noundef %4, ptr noundef %6, ptr noundef %5)
  %indvars.iv.next = add nuw nsw i64 %indvars.iv, 1
  %exitcond.not = icmp eq i64 %indvars.iv.next, 482
  br i1 %exitcond.not, label %8, label %3, !llvm.loop !6

8:                                                ; preds = %3
  %9 = tail call ptr @wmem_file_scope()
  %10 = tail call noalias ptr @wmem_map_new(ptr noundef %9, ptr noundef nonnull @g_direct_hash, ptr noundef nonnull @g_direct_equal)
  store ptr %10, ptr @dcm_tag_table, align 8
  br label %11

11:                                               ; preds = %8, %11
  %indvars.iv19 = phi i64 [ 0, %8 ], [ %indvars.iv.next20, %11 ]
  %12 = load ptr, ptr @dcm_tag_table, align 8
  %13 = getelementptr [5179 x %struct.dcm_tag], ptr @dcm_tag_data, i64 0, i64 %indvars.iv19
  %14 = load i32, ptr %13, align 8
  %15 = zext i32 %14 to i64
  %16 = inttoptr i64 %15 to ptr
  %17 = tail call ptr @wmem_map_insert(ptr noundef %12, ptr noundef %16, ptr noundef %13)
  %indvars.iv.next20 = add nuw nsw i64 %indvars.iv19, 1
  %exitcond22.not = icmp eq i64 %indvars.iv.next20, 5179
  br i1 %exitcond22.not, label %18, label %11, !llvm.loop !8

18:                                               ; preds = %11
  %19 = tail call ptr @wmem_file_scope()
  %20 = tail call noalias ptr @wmem_map_new(ptr noundef %19, ptr noundef nonnull @g_direct_hash, ptr noundef nonnull @g_direct_equal)
  store ptr %20, ptr @dcm_status_table, align 8
  br label %21

21:                                               ; preds = %18, %21
  %indvars.iv23 = phi i64 [ 0, %18 ], [ %indvars.iv.next24, %21 ]
  %22 = load ptr, ptr @dcm_status_table, align 8
  %23 = getelementptr [53 x %struct.dcm_status], ptr @dcm_status_data, i64 0, i64 %indvars.iv23
  %24 = load i16, ptr %23, align 16
  %25 = zext i16 %24 to i64
  %26 = inttoptr i64 %25 to ptr
  %27 = tail call ptr @wmem_map_insert(ptr noundef %22, ptr noundef %26, ptr noundef %23)
  %indvars.iv.next24 = add nuw nsw i64 %indvars.iv23, 1
  %exitcond26.not = icmp eq i64 %indvars.iv.next24, 53
  br i1 %exitcond26.not, label %28, label %21, !llvm.loop !9

28:                                               ; preds = %21
  ret void
}